target datalayout = "e-m:e-p270:32:32-p271:32:32-p272:64:64-i64:64-i128:128-f80:128-n8:16:32:64-S128"
target triple = "x86_64-pc-linux-gnu"

%struct._lv_table_t = type { %struct._lv_obj_t, i32, i32, ptr, ptr, ptr, i32, i32 }
%struct._lv_obj_t = type { ptr, ptr, ptr, ptr, ptr, %struct.lv_area_t, i32, i16, i16 }
%struct.lv_area_t = type { i32, i32, i32, i32 }

; Function Attrs: nounwind uwtable
define internal void @scroll_to_selected_cell(ptr noundef %0) #0 {
  %2 = alloca ptr, align 8
  %3 = alloca ptr, align 8
  %4 = alloca %struct.lv_area_t, align 4
  store ptr %0, ptr %2, align 8, !tbaa !8
  call void @llvm.lifetime.start.p0(i64 8, ptr %3) #6
  %5 = load ptr, ptr %2, align 8, !tbaa !8
  store ptr %5, ptr %3, align 8, !tbaa !10
  call void @llvm.lifetime.start.p0(i64 16, ptr %4) #6
  %6 = load ptr, ptr %2, align 8, !tbaa !8
  %7 = load ptr, ptr %3, align 8, !tbaa !10
  %8 = getelementptr inbounds nuw %struct._lv_table_t, ptr %7, i32 0, i32 7
  %9 = load i32, ptr %8, align 4, !tbaa !29
  %10 = load ptr, ptr %3, align 8, !tbaa !10
  %11 = getelementptr inbounds nuw %struct._lv_table_t, ptr %10, i32 0, i32 6
  %12 = load i32, ptr %11, align 8, !tbaa !30
  call void @get_cell_area(ptr noundef %6, i32 noundef %9, i32 noundef %12, ptr noundef %4)
  %13 = getelementptr inbounds nuw %struct.lv_area_t, ptr %4, i32 0, i32 0
  %14 = load i32, ptr %13, align 4, !tbaa !62
  %15 = icmp slt i32 %14, 0
  br i1 %15, label %16, label %21

16:                                               ; preds = %1
  %17 = load ptr, ptr %2, align 8, !tbaa !8
  %18 = getelementptr inbounds nuw %struct.lv_area_t, ptr %4, i32 0, i32 0
  %19 = load i32, ptr %18, align 4, !tbaa !62
  %20 = sub nsw i32 0, %19
  call void @lv_obj_scroll_by_bounded(ptr noundef %17, i32 noundef %20, i32 noundef 0, i1 noundef zeroext true)
  br label %35

21:                                               ; preds = %1
  %22 = getelementptr inbounds nuw %struct.lv_area_t, ptr %4, i32 0, i32 2
  %23 = load i32, ptr %22, align 4, !tbaa !63
  %24 = load ptr, ptr %2, align 8, !tbaa !8
  %25 = call i32 @lv_obj_get_width(ptr noundef %24)
  %26 = icmp sgt i32 %23, %25
  br i1 %26, label %27, label %34

27:                                               ; preds = %21
  %28 = load ptr, ptr %2, align 8, !tbaa !8
  %29 = load ptr, ptr %2, align 8, !tbaa !8
  %30 = call i32 @lv_obj_get_width(ptr noundef %29)
  %31 = getelementptr inbounds nuw %struct.lv_area_t, ptr %4, i32 0, i32 2
  %32 = load i32, ptr %31, align 4, !tbaa !63
  %33 = sub nsw i32 %30, %32
  call void @lv_obj_scroll_by_bounded(ptr noundef %28, i32 noundef %33, i32 noundef 0, i1 noundef zeroext true)
  br label %34

34:                                               ; preds = %27, %21
  br label %35

35:                                               ; preds = %34, %16
  %36 = getelementptr inbounds nuw %struct.lv_area_t, ptr %4, i32 0, i32 1
  %37 = load i32, ptr %36, align 4, !tbaa !64
  %38 = icmp slt i32 %37, 0
  br i1 %38, label %39, label %44

39:                                               ; preds = %35
  %40 = load ptr, ptr %2, align 8, !tbaa !8
  %41 = getelementptr inbounds nuw %struct.lv_area_t, ptr %4, i32 0, i32 1
  %42 = load i32, ptr %41, align 4, !tbaa !64
  %43 = sub nsw i32 0, %42
  call void @lv_obj_scroll_by_bounded(ptr noundef %40, i32 noundef 0, i32 noundef %43, i1 noundef zeroext true)
  br label %58

44:                                               ; preds = %35
  %45 = getelementptr inbounds nuw %struct.lv_area_t, ptr %4, i32 0, i32 3
  %46 = load i32, ptr %45, align 4, !tbaa !65
  %47 = load ptr, ptr %2, align 8, !tbaa !8
  %48 = call i32 @lv_obj_get_height(ptr noundef %47)
  %49 = icmp sgt i32 %46, %48
  br i1 %49, label %50, label %57

50:                                               ; preds = %44
  %51 = load ptr, ptr %2, align 8, !tbaa !8
  %52 = load ptr, ptr %2, align 8, !tbaa !8
  %53 = call i32 @lv_obj_get_height(ptr noundef %52)
  %54 = getelementptr inbounds nuw %struct.lv_area_t, ptr %4, i32 0, i32 3
  %55 = load i32, ptr %54, align 4, !tbaa !65
  %56 = sub nsw i32 %53, %55
  call void @lv_obj_scroll_by_bounded(ptr noundef %51, i32 noundef 0, i32 noundef %56, i1 noundef zeroext true)
  br label %57

57:                                               ; preds = %50, %44
  br label %58

58:                                               ; preds = %57, %39
  call void @llvm.lifetime.end.p0(i64 16, ptr %4) #6
  call void @llvm.lifetime.end.p0(i64 8, ptr %3) #6
  ret void
}