; Function Attrs: nounwind uwtable
define internal fastcc void @scroll_to_selected_cell(ptr noundef %0) unnamed_addr #0 {
  %2 = alloca %struct.lv_area_t, align 4
  call void @llvm.lifetime.start.p0(i64 16, ptr nonnull %2) #9
  %3 = getelementptr inbounds nuw i8, ptr %0, i64 100
  %4 = load i32, ptr %3, align 4, !tbaa !25
  %5 = getelementptr inbounds nuw i8, ptr %0, i64 96
  %6 = load i32, ptr %5, align 8, !tbaa !26
  call fastcc void @get_cell_area(ptr noundef %0, i32 noundef %4, i32 noundef %6, ptr noundef %2)
  %7 = load i32, ptr %2, align 4, !tbaa !48
  %8 = icmp slt i32 %7, 0
  br i1 %8, label %9, label %11

9:                                                ; preds = %1
  %10 = sub nsw i32 0, %7
  br label %.sink.split

11:                                               ; preds = %1
  %12 = getelementptr inbounds nuw i8, ptr %2, i64 8
  %13 = load i32, ptr %12, align 4, !tbaa !49
  %14 = tail call i32 @lv_obj_get_width(ptr noundef nonnull %0) #9
  %15 = icmp sgt i32 %13, %14
  br i1 %15, label %16, label %19

16:                                               ; preds = %11
  %17 = tail call i32 @lv_obj_get_width(ptr noundef nonnull %0) #9
  %18 = sub nsw i32 %17, %13
  br label %.sink.split

.sink.split:                                      ; preds = %9, %16
  %.sink = phi i32 [ %18, %16 ], [ %10, %9 ]
  tail call void @lv_obj_scroll_by_bounded(ptr noundef nonnull %0, i32 noundef %.sink, i32 noundef 0, i1 noundef zeroext true) #9
  br label %19

19:                                               ; preds = %.sink.split, %11
  %20 = getelementptr inbounds nuw i8, ptr %2, i64 4
  %21 = load i32, ptr %20, align 4, !tbaa !50
  %22 = icmp slt i32 %21, 0
  br i1 %22, label %23, label %25

23:                                               ; preds = %19
  %24 = sub nsw i32 0, %21
  br label %.sink.split13

25:                                               ; preds = %19
  %26 = getelementptr inbounds nuw i8, ptr %2, i64 12
  %27 = load i32, ptr %26, align 4, !tbaa !51
  %28 = tail call i32 @lv_obj_get_height(ptr noundef nonnull %0) #9
  %29 = icmp sgt i32 %27, %28
  br i1 %29, label %30, label %33

30:                                               ; preds = %25
  %31 = tail call i32 @lv_obj_get_height(ptr noundef nonnull %0) #9
  %32 = sub nsw i32 %31, %27
  br label %.sink.split13

.sink.split13:                                    ; preds = %23, %30
  %.sink14 = phi i32 [ %32, %30 ], [ %24, %23 ]
  tail call void @lv_obj_scroll_by_bounded(ptr noundef nonnull %0, i32 noundef 0, i32 noundef %.sink14, i1 noundef zeroext true) #9
  br label %33

33:                                               ; preds = %.sink.split13, %25
  call void @llvm.lifetime.end.p0(i64 16, ptr nonnull %2) #9
  ret void
}